target datalayout = "e-m:e-p270:32:32-p271:32:32-p272:64:64-i64:64-i128:128-f80:128-n8:16:32:64-S128"
target triple = "x86_64-pc-linux-gnu"

%struct.tds_conv_info_t = type { ptr, i32, i32, i32, i32, i32, i32, i32, i32, i8 }

@hf_tds_doneinproc_donerowcount_64 = internal global i32 0, align 4
@hf_tds_doneinproc_donerowcount_32 = internal global i32 0, align 4
@hf_tds_doneinproc_status = internal global i32 0, align 4
@hf_tds_doneinproc_curcmd = internal global i32 0, align 4
@ett_tds_done_status = internal global i32 0, align 4
@tds_protocol_type = internal global i32 65535, align 4
@doneinproc_status_flags = internal constant [8 x ptr] [ptr @hf_tds_done_status_more, ptr @hf_tds_done_status_error, ptr @hf_tds_done_status_inxact, ptr @hf_tds_done_status_count, ptr @hf_tds_done_status_attn, ptr @hf_tds_done_status_event, ptr @hf_tds_done_status_srverror, ptr null], align 16

; Function Attrs: nounwind null_pointer_is_valid sspstrong uwtable
define internal i32 @tds_get_int4_encoding(ptr noundef %0) #5 {
  %2 = alloca ptr, align 8
  store ptr %0, ptr %2, align 8
  %3 = load ptr, ptr %2, align 8
  %4 = getelementptr inbounds nuw %struct.tds_conv_info_t, ptr %3, i32 0, i32 5
  %5 = load i32, ptr %4, align 8
  %6 = icmp eq i32 %5, 0
  %7 = select i1 %6, i32 0, i32 -2147483648
  ret i32 %7
}

; Function Attrs: nounwind null_pointer_is_valid sspstrong uwtable
define internal i32 @tds_get_int2_encoding(ptr noundef %0) #5 {
  %2 = alloca ptr, align 8
  store ptr %0, ptr %2, align 8
  %3 = load ptr, ptr %2, align 8
  %4 = getelementptr inbounds nuw %struct.tds_conv_info_t, ptr %3, i32 0, i32 4
  %5 = load i32, ptr %4, align 4
  %6 = icmp eq i32 %5, 2
  %7 = select i1 %6, i32 0, i32 -2147483648
  ret i32 %7
}

; Function Attrs: null_pointer_is_valid sspstrong uwtable
define internal i32 @dissect_tds_doneinproc_token(ptr noundef %0, i32 noundef %1, ptr noundef %2, ptr noundef %3) #0 {
  %5 = alloca ptr, align 8
  %6 = alloca i32, align 4
  %7 = alloca ptr, align 8
  %8 = alloca ptr, align 8
  %9 = alloca i32, align 4
  store ptr %0, ptr %5, align 8
  store i32 %1, ptr %6, align 4
  store ptr %2, ptr %7, align 8
  store ptr %3, ptr %8, align 8
  call void @llvm.lifetime.start.p0(i64 4, ptr %9) #11
  %10 = load i32, ptr %6, align 4
  store i32 %10, ptr %9, align 4
  %11 = load ptr, ptr %7, align 8
  %12 = load ptr, ptr %5, align 8
  %13 = load i32, ptr %9, align 4
  %14 = load i32, ptr @hf_tds_doneinproc_status, align 4
  %15 = load i32, ptr @ett_tds_done_status, align 4
  %16 = load ptr, ptr %8, align 8
  %17 = call i32 @tds_get_int2_encoding(ptr noundef %16)
  %18 = call ptr @proto_tree_add_bitmask(ptr noundef %11, ptr noundef %12, i32 noundef %13, i32 noundef %14, i32 noundef %15, ptr noundef @doneinproc_status_flags, i32 noundef %17)
  %19 = load i32, ptr %9, align 4
  %20 = add i32 %19, 2
  store i32 %20, ptr %9, align 4
  %21 = load ptr, ptr %7, align 8
  %22 = load i32, ptr @hf_tds_doneinproc_curcmd, align 4
  %23 = load ptr, ptr %5, align 8
  %24 = load i32, ptr %9, align 4
  %25 = load ptr, ptr %8, align 8
  %26 = call i32 @tds_get_int2_encoding(ptr noundef %25)
  %27 = call ptr @proto_tree_add_item(ptr noundef %21, i32 noundef %22, ptr noundef %23, i32 noundef %24, i32 noundef 2, i32 noundef %26)
  %28 = load i32, ptr %9, align 4
  %29 = add i32 %28, 2
  store i32 %29, ptr %9, align 4
  %30 = load i32, ptr @tds_protocol_type, align 4
  %31 = icmp eq i32 %30, 65535
  br i1 %31, label %32, label %37

32:                                               ; preds = %4
  %33 = load ptr, ptr %8, align 8
  %34 = getelementptr inbounds nuw %struct.tds_conv_info_t, ptr %33, i32 0, i32 1
  %35 = load i32, ptr %34, align 8
  %36 = icmp sle i32 %35, 28928
  br i1 %36, label %40, label %50

37:                                               ; preds = %4
  %38 = load i32, ptr @tds_protocol_type, align 4
  %39 = icmp sle i32 %38, 28928
  br i1 %39, label %40, label %50

40:                                               ; preds = %37, %32
  %41 = load ptr, ptr %7, align 8
  %42 = load i32, ptr @hf_tds_doneinproc_donerowcount_32, align 4
  %43 = load ptr, ptr %5, align 8
  %44 = load i32, ptr %9, align 4
  %45 = load ptr, ptr %8, align 8
  %46 = call i32 @tds_get_int4_encoding(ptr noundef %45)
  %47 = call ptr @proto_tree_add_item(ptr noundef %41, i32 noundef %42, ptr noundef %43, i32 noundef %44, i32 noundef 4, i32 noundef %46)
  %48 = load i32, ptr %9, align 4
  %49 = add i32 %48, 4
  store i32 %49, ptr %9, align 4
  br label %58

50:                                               ; preds = %37, %32
  %51 = load ptr, ptr %7, align 8
  %52 = load i32, ptr @hf_tds_doneinproc_donerowcount_64, align 4
  %53 = load ptr, ptr %5, align 8
  %54 = load i32, ptr %9, align 4
  %55 = call ptr @proto_tree_add_item(ptr noundef %51, i32 noundef %52, ptr noundef %53, i32 noundef %54, i32 noundef 8, i32 noundef -2147483648)
  %56 = load i32, ptr %9, align 4
  %57 = add i32 %56, 8
  store i32 %57, ptr %9, align 4
  br label %58

58:                                               ; preds = %50, %40
  %59 = load i32, ptr %9, align 4
  %60 = load i32, ptr %6, align 4
  %61 = sub i32 %59, %60
  call void @llvm.lifetime.end.p0(i64 4, ptr %9) #11
  ret i32 %61
}